; Function Attrs: mustprogress uwtable
define void @_ZN7testing8internal17TestEventRepeater18OnTestProgramStartERKNS_8UnitTestE(ptr noundef nonnull readonly align 8 captures(none) dereferenceable(40) %0, ptr noundef nonnull align 8 dereferenceable(72) %1) unnamed_addr #3 align 2 {
  %3 = getelementptr inbounds nuw i8, ptr %0, i64 8
  %4 = load i8, ptr %3, align 8, !tbaa !244, !range !16, !noundef !17
  %5 = trunc nuw i8 %4 to i1
  br i1 %5, label %.preheader, label %.loopexit

.preheader:                                       ; preds = %2
  %6 = getelementptr inbounds nuw i8, ptr %0, i64 16
  %7 = getelementptr inbounds nuw i8, ptr %0, i64 24
  %8 = load ptr, ptr %7, align 8, !tbaa !1176
  %9 = load ptr, ptr %6, align 8, !tbaa !1174
  %.not = icmp eq ptr %8, %9
  br i1 %.not, label %.loopexit, label %.lr.ph

.lr.ph:                                           ; preds = %.preheader, %.lr.ph
  %10 = phi ptr [ %18, %.lr.ph ], [ %9, %.preheader ]
  %.04 = phi i64 [ %16, %.lr.ph ], [ 0, %.preheader ]
  %11 = getelementptr inbounds nuw ptr, ptr %10, i64 %.04
  %12 = load ptr, ptr %11, align 8, !tbaa !1172
  %13 = load ptr, ptr %12, align 8, !tbaa !32
  %14 = getelementptr inbounds nuw i8, ptr %13, i64 16
  %15 = load ptr, ptr %14, align 8
  tail call void %15(ptr noundef nonnull align 8 dereferenceable(8) %12, ptr noundef nonnull align 8 dereferenceable(72) %1)
  %16 = add nuw i64 %.04, 1
  %17 = load ptr, ptr %7, align 8, !tbaa !1176
  %18 = load ptr, ptr %6, align 8, !tbaa !1174
  %19 = ptrtoint ptr %17 to i64
  %20 = ptrtoint ptr %18 to i64
  %21 = sub i64 %19, %20
  %22 = ashr exact i64 %21, 3
  %23 = icmp ult i64 %16, %22
  br i1 %23, label %.lr.ph, label %.loopexit, !llvm.loop !1178

.loopexit:                                        ; preds = %.lr.ph, %.preheader, %2
  ret void
}